; ModuleID = '35/36.c'
source_filename = "35/36.c"
target datalayout = "e-m:e-p270:32:32-p271:32:32-p272:64:64-i64:64-f80:128-n8:16:32:64-S128"
target triple = "x86_64-pc-linux-gnu"

@.str = private unnamed_addr constant [6 x i8] c"%d,%d\00", align 1
@.str.1 = private unnamed_addr constant [3 x i8] c"%d\00", align 1
@.str.2 = private unnamed_addr constant [6 x i8] c"%d+%d\00", align 1
@.str.3 = private unnamed_addr constant [3 x i8] c"No\00", align 1

; Function Attrs: noinline nounwind uwtable
define dso_local void @main() #0 {
  %1 = alloca [8 x [8 x i32]], align 16
  %2 = alloca i32, align 4
  %3 = alloca i32, align 4
  %4 = alloca i32, align 4
  %5 = alloca i32, align 4
  %6 = alloca i32, align 4
  %7 = alloca i32, align 4
  %8 = alloca i32, align 4
  %9 = alloca i32, align 4
  %10 = alloca i32, align 4
  store i32 0, i32* %8, align 4
  store i32 0, i32* %9, align 4
  store i32 0, i32* %10, align 4
  %11 = call i32 (i8*, ...) @__isoc99_scanf(i8* getelementptr inbounds ([6 x i8], [6 x i8]* @.str, i64 0, i64 0), i32* %2, i32* %3)
  store i32 0, i32* %4, align 4
  br label %12

12:                                               ; preds = %33, %0
  %13 = load i32, i32* %4, align 4
  %14 = load i32, i32* %2, align 4
  %15 = icmp slt i32 %13, %14
  br i1 %15, label %16, label %36

16:                                               ; preds = %12
  store i32 0, i32* %5, align 4
  br label %17

17:                                               ; preds = %29, %16
  %18 = load i32, i32* %5, align 4
  %19 = load i32, i32* %3, align 4
  %20 = icmp slt i32 %18, %19
  br i1 %20, label %21, label %32

21:                                               ; preds = %17
  %22 = load i32, i32* %4, align 4
  %23 = sext i32 %22 to i64
  %24 = getelementptr inbounds [8 x [8 x i32]], [8 x [8 x i32]]* %1, i64 0, i64 %23
  %25 = load i32, i32* %5, align 4
  %26 = sext i32 %25 to i64
  %27 = getelementptr inbounds [8 x i32], [8 x i32]* %24, i64 0, i64 %26
  %28 = call i32 (i8*, ...) @__isoc99_scanf(i8* getelementptr inbounds ([3 x i8], [3 x i8]* @.str.1, i64 0, i64 0), i32* %27)
  br label %29

29:                                               ; preds = %21
  %30 = load i32, i32* %5, align 4
  %31 = add nsw i32 %30, 1
  store i32 %31, i32* %5, align 4
  br label %17

32:                                               ; preds = %17
  br label %33

33:                                               ; preds = %32
  %34 = load i32, i32* %4, align 4
  %35 = add nsw i32 %34, 1
  store i32 %35, i32* %4, align 4
  br label %12

36:                                               ; preds = %12
  store i32 0, i32* %4, align 4
  br label %37

37:                                               ; preds = %117, %36
  %38 = load i32, i32* %4, align 4
  %39 = load i32, i32* %2, align 4
  %40 = icmp slt i32 %38, %39
  br i1 %40, label %41, label %120

41:                                               ; preds = %37
  store i32 0, i32* %5, align 4
  br label %42

42:                                               ; preds = %109, %41
  %43 = load i32, i32* %5, align 4
  %44 = load i32, i32* %3, align 4
  %45 = icmp slt i32 %43, %44
  br i1 %45, label %46, label %112

46:                                               ; preds = %42
  store i32 0, i32* %9, align 4
  store i32 0, i32* %8, align 4
  store i32 0, i32* %6, align 4
  br label %47

47:                                               ; preds = %69, %46
  %48 = load i32, i32* %6, align 4
  %49 = load i32, i32* %3, align 4
  %50 = icmp slt i32 %48, %49
  br i1 %50, label %51, label %72

51:                                               ; preds = %47
  %52 = load i32, i32* %4, align 4
  %53 = sext i32 %52 to i64
  %54 = getelementptr inbounds [8 x [8 x i32]], [8 x [8 x i32]]* %1, i64 0, i64 %53
  %55 = load i32, i32* %5, align 4
  %56 = sext i32 %55 to i64
  %57 = getelementptr inbounds [8 x i32], [8 x i32]* %54, i64 0, i64 %56
  %58 = load i32, i32* %57, align 4
  %59 = load i32, i32* %4, align 4
  %60 = sext i32 %59 to i64
  %61 = getelementptr inbounds [8 x [8 x i32]], [8 x [8 x i32]]* %1, i64 0, i64 %60
  %62 = load i32, i32* %6, align 4
  %63 = sext i32 %62 to i64
  %64 = getelementptr inbounds [8 x i32], [8 x i32]* %61, i64 0, i64 %63
  %65 = load i32, i32* %64, align 4
  %66 = icmp slt i32 %58, %65
  br i1 %66, label %67, label %68

67:                                               ; preds = %51
  store i32 1, i32* %8, align 4
  br label %68

68:                                               ; preds = %67, %51
  br label %69

69:                                               ; preds = %68
  %70 = load i32, i32* %6, align 4
  %71 = add nsw i32 %70, 1
  store i32 %71, i32* %6, align 4
  br label %47

72:                                               ; preds = %47
  store i32 0, i32* %7, align 4
  br label %73

73:                                               ; preds = %95, %72
  %74 = load i32, i32* %7, align 4
  %75 = load i32, i32* %2, align 4
  %76 = icmp slt i32 %74, %75
  br i1 %76, label %77, label %98

77:                                               ; preds = %73
  %78 = load i32, i32* %4, align 4
  %79 = sext i32 %78 to i64
  %80 = getelementptr inbounds [8 x [8 x i32]], [8 x [8 x i32]]* %1, i64 0, i64 %79
  %81 = load i32, i32* %5, align 4
  %82 = sext i32 %81 to i64
  %83 = getelementptr inbounds [8 x i32], [8 x i32]* %80, i64 0, i64 %82
  %84 = load i32, i32* %83, align 4
  %85 = load i32, i32* %7, align 4
  %86 = sext i32 %85 to i64
  %87 = getelementptr inbounds [8 x [8 x i32]], [8 x [8 x i32]]* %1, i64 0, i64 %86
  %88 = load i32, i32* %5, align 4
  %89 = sext i32 %88 to i64
  %90 = getelementptr inbounds [8 x i32], [8 x i32]* %87, i64 0, i64 %89
  %91 = load i32, i32* %90, align 4
  %92 = icmp sgt i32 %84, %91
  br i1 %92, label %93, label %94

93:                                               ; preds = %77
  store i32 1, i32* %9, align 4
  br label %94

94:                                               ; preds = %93, %77
  br label %95

95:                                               ; preds = %94
  %96 = load i32, i32* %7, align 4
  %97 = add nsw i32 %96, 1
  store i32 %97, i32* %7, align 4
  br label %73

98:                                               ; preds = %73
  %99 = load i32, i32* %8, align 4
  %100 = icmp eq i32 %99, 0
  br i1 %100, label %101, label %108

101:                                              ; preds = %98
  %102 = load i32, i32* %9, align 4
  %103 = icmp eq i32 %102, 0
  br i1 %103, label %104, label %108

104:                                              ; preds = %101
  %105 = load i32, i32* %4, align 4
  %106 = load i32, i32* %5, align 4
  %107 = call i32 (i8*, ...) @printf(i8* getelementptr inbounds ([6 x i8], [6 x i8]* @.str.2, i64 0, i64 0), i32 %105, i32 %106)
  store i32 1, i32* %10, align 4
  br label %112

108:                                              ; preds = %101, %98
  br label %109

109:                                              ; preds = %108
  %110 = load i32, i32* %5, align 4
  %111 = add nsw i32 %110, 1
  store i32 %111, i32* %5, align 4
  br label %42

112:                                              ; preds = %104, %42
  %113 = load i32, i32* %10, align 4
  %114 = icmp eq i32 %113, 1
  br i1 %114, label %115, label %116

115:                                              ; preds = %112
  br label %120

116:                                              ; preds = %112
  br label %117

117:                                              ; preds = %116
  %118 = load i32, i32* %4, align 4
  %119 = add nsw i32 %118, 1
  store i32 %119, i32* %4, align 4
  br label %37

120:                                              ; preds = %115, %37
  %121 = load i32, i32* %10, align 4
  %122 = icmp eq i32 %121, 0
  br i1 %122, label %123, label %125

123:                                              ; preds = %120
  %124 = call i32 (i8*, ...) @printf(i8* getelementptr inbounds ([3 x i8], [3 x i8]* @.str.3, i64 0, i64 0))
  br label %125

125:                                              ; preds = %123, %120
  ret void
}

declare dso_local i32 @__isoc99_scanf(i8*, ...) #1

declare dso_local i32 @printf(i8*, ...) #1


!llvm.module.flags = !{!0}
!llvm.ident = !{!1}

!0 = !{i32 1, !"wchar_size", i32 4}
!1 = !{!"clang version 10.0.0-4ubuntu1 "}
